; Function Attrs: mustprogress nofree norecurse nosync nounwind willreturn memory(argmem: readwrite) uwtable
define void @_ZN4pkpy12LineProfiler5beginEv(ptr noundef nonnull align 8 captures(none) dereferenceable(120) %0) local_unnamed_addr #3 align 2 personality ptr @__gxx_personality_v0 {
  %2 = getelementptr inbounds nuw i8, ptr %0, i64 48
  %3 = load ptr, ptr %2, align 8
  %4 = getelementptr inbounds nuw i8, ptr %0, i64 56
  %5 = load ptr, ptr %4, align 8
  %.not.i.i.i = icmp eq ptr %5, %3
  br i1 %.not.i.i.i, label %_ZN4pkpy5stackINS_12_FrameRecordESt6vectorIS1_SaIS1_EEE5clearEv.exit, label %6

6:                                                ; preds = %1
  store ptr %3, ptr %4, align 8
  br label %_ZN4pkpy5stackINS_12_FrameRecordESt6vectorIS1_SaIS1_EEE5clearEv.exit

_ZN4pkpy5stackINS_12_FrameRecordESt6vectorIS1_SaIS1_EEE5clearEv.exit: ; preds = %1, %6
  ret void
}